; Function Attrs: mustprogress nofree norecurse nosync nounwind willreturn memory(argmem: read) uwtable
define internal noundef i64 @_ZN7rocksdb12_GLOBAL__N_122LegacyBloomBitsBuilder20EstimateEntriesAddedEv(ptr nocapture noundef nonnull readonly align 8 dereferenceable(48) %this) unnamed_addr #16 align 2 {
entry:
  %hash_entries_ = getelementptr inbounds i8, ptr %this, i64 16
  %_M_finish.i = getelementptr inbounds i8, ptr %this, i64 24
  %0 = load ptr, ptr %_M_finish.i, align 8
  %1 = load ptr, ptr %hash_entries_, align 8
  %sub.ptr.lhs.cast.i = ptrtoint ptr %0 to i64
  %sub.ptr.rhs.cast.i = ptrtoint ptr %1 to i64
  %sub.ptr.sub.i = sub i64 %sub.ptr.lhs.cast.i, %sub.ptr.rhs.cast.i
  %sub.ptr.div.i = ashr exact i64 %sub.ptr.sub.i, 2
  ret i64 %sub.ptr.div.i
}